target datalayout = "e-m:e-p270:32:32-p271:32:32-p272:64:64-i64:64-i128:128-f80:128-n8:16:32:64-S128"
target triple = "x86_64-pc-linux-gnu"

; Function Attrs: inlinehint nounwind uwtable
define internal i32 @Abc_LitIsCompl(i32 noundef %0) #1 {
  %2 = alloca i32, align 4
  store i32 %0, ptr %2, align 4, !tbaa !27
  %3 = load i32, ptr %2, align 4, !tbaa !27
  %4 = and i32 %3, 1
  ret i32 %4
}

; Function Attrs: nounwind uwtable
define i32 @If_DsdManPushInv(ptr noundef %0, i32 noundef %1, ptr noundef %2) #0 {
  %4 = alloca i32, align 4
  %5 = alloca ptr, align 8
  %6 = alloca i32, align 4
  %7 = alloca ptr, align 8
  store ptr %0, ptr %5, align 8, !tbaa !3
  store i32 %1, ptr %6, align 4, !tbaa !27
  store ptr %2, ptr %7, align 8, !tbaa !64
  %8 = load i32, ptr %6, align 4, !tbaa !27
  %9 = call i32 @Abc_LitIsCompl(i32 noundef %8)
  %10 = icmp ne i32 %9, 0
  br i1 %10, label %11, label %21

11:                                               ; preds = %3
  %12 = load ptr, ptr %5, align 8, !tbaa !3
  %13 = load i32, ptr %6, align 4, !tbaa !27
  %14 = call i32 @If_DsdManCheckInv_rec(ptr noundef %12, i32 noundef %13)
  %15 = icmp ne i32 %14, 0
  br i1 %15, label %16, label %21

16:                                               ; preds = %11
  %17 = load ptr, ptr %5, align 8, !tbaa !3
  %18 = load i32, ptr %6, align 4, !tbaa !27
  %19 = load ptr, ptr %7, align 8, !tbaa !64
  %20 = call i32 @If_DsdManPushInv_rec(ptr noundef %17, i32 noundef %18, ptr noundef %19)
  store i32 %20, ptr %4, align 4
  br label %22

21:                                               ; preds = %11, %3
  store i32 0, ptr %4, align 4
  br label %22

22:                                               ; preds = %21, %16
  %23 = load i32, ptr %4, align 4
  ret i32 %23
}