; Function Attrs: nofree nosync nounwind memory(read, argmem: readwrite, inaccessiblemem: none) uwtable
define range(i32 0, 2) i32 @If_DsdManPushInv(ptr noundef %0, i32 noundef %1, ptr noundef captures(none) %2) local_unnamed_addr #17 {
  %4 = and i32 %1, 1
  %.not = icmp eq i32 %4, 0
  br i1 %.not, label %9, label %5

5:                                                ; preds = %3
  %6 = tail call i32 @If_DsdManCheckInv_rec(ptr noundef %0, i32 noundef %1)
  %.not6 = icmp eq i32 %6, 0
  br i1 %.not6, label %9, label %7

7:                                                ; preds = %5
  %8 = tail call i32 @If_DsdManPushInv_rec(ptr noundef %0, i32 noundef %1, ptr noundef %2)
  br label %9

9:                                                ; preds = %3, %5, %7
  %.0 = phi i32 [ 1, %7 ], [ 0, %5 ], [ 0, %3 ]
  ret i32 %.0
}